; Function Attrs: mustprogress nofree norecurse nosync nounwind willreturn memory(read, inaccessiblemem: none) uwtable
define { ptr, i32 } @_ZNK10OpenSubdiv6v3_6_03Far10PatchTable23GetPatchVaryingVerticesEii(ptr nocapture noundef nonnull readonly align 8 dereferenceable(273) %0, i32 noundef %1, i32 noundef %2) local_unnamed_addr #6 align 2 {
  %4 = getelementptr inbounds nuw i8, ptr %0, i64 152
  %5 = load ptr, ptr %4, align 8
  %6 = getelementptr inbounds i8, ptr %0, i64 160
  %7 = load ptr, ptr %6, align 8
  %8 = icmp eq ptr %5, %7
  br i1 %8, label %23, label %9

9:                                                ; preds = %3
  %10 = getelementptr inbounds nuw i8, ptr %0, i64 8
  %11 = sext i32 %1 to i64
  %12 = load ptr, ptr %10, align 8
  %13 = getelementptr inbounds nuw i8, ptr %0, i64 144
  %14 = load i32, ptr %13, align 8
  %switch.tableidx = add i32 %14, -1
  %15 = icmp ult i32 %switch.tableidx, 10
  br i1 %15, label %switch.lookup, label %_ZNK10OpenSubdiv6v3_6_03Far15PatchDescriptor21GetNumControlVerticesEv.exit

switch.lookup:                                    ; preds = %9
  %16 = zext nneg i32 %switch.tableidx to i64
  %switch.gep = getelementptr inbounds [10 x i32], ptr @switch.table._ZNK10OpenSubdiv6v3_6_03Far10PatchTable18GetPatchFVarValuesEiii.5, i64 0, i64 %16
  %switch.load = load i32, ptr %switch.gep, align 4
  br label %_ZNK10OpenSubdiv6v3_6_03Far15PatchDescriptor21GetNumControlVerticesEv.exit

_ZNK10OpenSubdiv6v3_6_03Far15PatchDescriptor21GetNumControlVerticesEv.exit: ; preds = %9, %switch.lookup
  %.0.i.i = phi i32 [ %switch.load, %switch.lookup ], [ -1, %9 ]
  %17 = getelementptr inbounds %"struct.OpenSubdiv::v3_6_0::Far::PatchTable::PatchArray", ptr %12, i64 %11, i32 3
  %18 = load i32, ptr %17, align 4
  %19 = add nsw i32 %18, %2
  %20 = mul nsw i32 %19, %.0.i.i
  %21 = sext i32 %20 to i64
  %22 = getelementptr inbounds i32, ptr %5, i64 %21
  br label %23

23:                                               ; preds = %3, %_ZNK10OpenSubdiv6v3_6_03Far15PatchDescriptor21GetNumControlVerticesEv.exit
  %.sroa.3.0 = phi i32 [ %.0.i.i, %_ZNK10OpenSubdiv6v3_6_03Far15PatchDescriptor21GetNumControlVerticesEv.exit ], [ 0, %3 ]
  %.sroa.0.0 = phi ptr [ %22, %_ZNK10OpenSubdiv6v3_6_03Far15PatchDescriptor21GetNumControlVerticesEv.exit ], [ null, %3 ]
  %.fca.0.insert = insertvalue { ptr, i32 } poison, ptr %.sroa.0.0, 0
  %.fca.1.insert = insertvalue { ptr, i32 } %.fca.0.insert, i32 %.sroa.3.0, 1
  ret { ptr, i32 } %.fca.1.insert
}